; Function Attrs: mustprogress uwtable
define hidden noundef ptr @_ZN13sexpr_manager13mk_bv_numeralERK8rationaljjj(ptr noundef nonnull align 8 dereferenceable(528) %0, ptr noundef nonnull align 8 dereferenceable(32) %1, i32 noundef %2, i32 noundef %3, i32 noundef %4) local_unnamed_addr #7 align 2 {
  %6 = tail call noundef ptr @_ZN22small_object_allocator8allocateEm(ptr noundef nonnull align 8 dereferenceable(520) %0, i64 noundef 56)
  store i32 2, ptr %6, align 4, !tbaa !3
  %7 = getelementptr inbounds nuw i8, ptr %6, i64 4
  store i32 0, ptr %7, align 4, !tbaa !9
  %8 = getelementptr inbounds nuw i8, ptr %6, i64 8
  store i32 %3, ptr %8, align 4, !tbaa !10
  %9 = getelementptr inbounds nuw i8, ptr %6, i64 12
  store i32 %4, ptr %9, align 4, !tbaa !11
  %10 = getelementptr inbounds nuw i8, ptr %6, i64 16
  store i32 0, ptr %10, align 8, !tbaa !45
  %11 = getelementptr inbounds nuw i8, ptr %6, i64 20
  %12 = load i8, ptr %11, align 4
  %13 = and i8 %12, -4
  store i8 %13, ptr %11, align 4
  %14 = getelementptr inbounds nuw i8, ptr %6, i64 24
  store ptr null, ptr %14, align 8, !tbaa !46
  %15 = getelementptr inbounds nuw i8, ptr %6, i64 32
  store i32 1, ptr %15, align 8, !tbaa !45
  %16 = getelementptr inbounds nuw i8, ptr %6, i64 36
  %17 = load i8, ptr %16, align 4
  %18 = and i8 %17, -4
  store i8 %18, ptr %16, align 4
  %19 = getelementptr inbounds nuw i8, ptr %6, i64 40
  store ptr null, ptr %19, align 8, !tbaa !46
  %20 = load ptr, ptr @_ZN8rational13g_mpq_managerE, align 8, !tbaa !26
  %21 = getelementptr inbounds nuw i8, ptr %1, i64 4
  %22 = load i8, ptr %21, align 4
  %23 = and i8 %22, 1
  %24 = icmp eq i8 %23, 0
  br i1 %24, label %25, label %27

25:                                               ; preds = %5
  %26 = load i32, ptr %1, align 8, !tbaa !45
  store i32 %26, ptr %10, align 8, !tbaa !45
  store i8 %13, ptr %11, align 4
  br label %_ZN11mpq_managerILb1EE3setER3mpzRKS1_.exit.i.i.i.i

27:                                               ; preds = %5
  tail call void @_ZN11mpz_managerILb1EE7big_setER3mpzRKS1_(ptr noundef nonnull align 8 dereferenceable(728) %20, ptr noundef nonnull align 8 dereferenceable(32) %10, ptr noundef nonnull align 8 dereferenceable(32) %1)
  br label %_ZN11mpq_managerILb1EE3setER3mpzRKS1_.exit.i.i.i.i

_ZN11mpq_managerILb1EE3setER3mpzRKS1_.exit.i.i.i.i: ; preds = %27, %25
  %28 = getelementptr inbounds nuw i8, ptr %1, i64 16
  %29 = getelementptr inbounds nuw i8, ptr %1, i64 20
  %30 = load i8, ptr %29, align 4
  %31 = and i8 %30, 1
  %32 = icmp eq i8 %31, 0
  br i1 %32, label %33, label %37

33:                                               ; preds = %_ZN11mpq_managerILb1EE3setER3mpzRKS1_.exit.i.i.i.i
  %34 = load i32, ptr %28, align 8, !tbaa !45
  store i32 %34, ptr %15, align 8, !tbaa !45
  %35 = load i8, ptr %16, align 4
  %36 = and i8 %35, -2
  store i8 %36, ptr %16, align 4
  br label %_ZN8sexpr_bvC2ERK8rationaljjj.exit

37:                                               ; preds = %_ZN11mpq_managerILb1EE3setER3mpzRKS1_.exit.i.i.i.i
  tail call void @_ZN11mpz_managerILb1EE7big_setER3mpzRKS1_(ptr noundef nonnull align 8 dereferenceable(728) %20, ptr noundef nonnull align 8 dereferenceable(16) %15, ptr noundef nonnull align 8 dereferenceable(16) %28)
  br label %_ZN8sexpr_bvC2ERK8rationaljjj.exit

_ZN8sexpr_bvC2ERK8rationaljjj.exit:               ; preds = %33, %37
  %38 = getelementptr inbounds nuw i8, ptr %6, i64 48
  store i32 %2, ptr %38, align 8, !tbaa !12
  ret ptr %6
}